(lp0
ccopy_reg
_reconstructor
p1
(cgoogle.cloud.bigquery.schema
SchemaField
p2
c__builtin__
object
p3
Ntp4
Rp5
(dp6
S'field_type'
p7
VSTRING
p8
sS'description'
p9
NsS'name'
p10
Vavailable_markets
p11
sS'fields'
p12
NsS'mode'
p13
VREPEATED
p14
sbag1
(g2
g3
Ntp15
Rp16
(dp17
g7
VSTRING
p18
sg9
Nsg10
Vid
p19
sg12
Nsg13
VNULLABLE
p20
sbag1
(g2
g3
Ntp21
Rp22
(dp23
g7
VRECORD
p24
sg9
Nsg10
Vexternal_ids
p25
sg12
(lp26
g1
(g2
g3
Ntp27
Rp28
(dp29
g7
VSTRING
p30
sg9
Nsg10
Visrc
p31
sg12
Nsg13
VNULLABLE
p32
sbasg13
VNULLABLE
p33
sbag1
(g2
g3
Ntp34
Rp35
(dp36
g7
VINTEGER
p37
sg9
Nsg10
Vduration_ms
p38
sg12
Nsg13
VNULLABLE
p39
sbag1
(g2
g3
Ntp40
Rp41
(dp42
g7
VSTRING
p43
sg9
Nsg10
Vtype
p44
sg12
Nsg13
VNULLABLE
p45
sbag1
(g2
g3
Ntp46
Rp47
(dp48
g7
VRECORD
p49
sg9
Nsg10
Vartists
p50
sg12
(lp51
g1
(g2
g3
Ntp52
Rp53
(dp54
g7
VSTRING
p55
sg9
Nsg10
Vid
p56
sg12
Nsg13
VNULLABLE
p57
sbag1
(g2
g3
Ntp58
Rp59
(dp60
g7
VSTRING
p61
sg9
Nsg10
Vtype
p62
sg12
Nsg13
VNULLABLE
p63
sbag1
(g2
g3
Ntp64
Rp65
(dp66
g7
VSTRING
p67
sg9
Nsg10
Vhref
p68
sg12
Nsg13
VNULLABLE
p69
sbag1
(g2
g3
Ntp70
Rp71
(dp72
g7
VSTRING
p73
sg9
Nsg10
Vuri
p74
sg12
Nsg13
VNULLABLE
p75
sbag1
(g2
g3
Ntp76
Rp77
(dp78
g7
VRECORD
p79
sg9
Nsg10
Vexternal_urls
p80
sg12
(lp81
g1
(g2
g3
Ntp82
Rp83
(dp84
g7
VSTRING
p85
sg9
Nsg10
Vspotify
p86
sg12
Nsg13
VNULLABLE
p87
sbasg13
VNULLABLE
p88
sbag1
(g2
g3
Ntp89
Rp90
(dp91
g7
VSTRING
p92
sg9
Nsg10
Vname
p93
sg12
Nsg13
VNULLABLE
p94
sbasg13
VREPEATED
p95
sbag1
(g2
g3
Ntp96
Rp97
(dp98
g7
VSTRING
p99
sg9
Nsg10
Vname
p100
sg12
Nsg13
VNULLABLE
p101
sbag1
(g2
g3
Ntp102
Rp103
(dp104
g7
VRECORD
p105
sg9
Nsg10
Vexternal_urls
p106
sg12
(lp107
g1
(g2
g3
Ntp108
Rp109
(dp110
g7
VSTRING
p111
sg9
Nsg10
Vspotify
p112
sg12
Nsg13
VNULLABLE
p113
sbasg13
VNULLABLE
p114
sbag1
(g2
g3
Ntp115
Rp116
(dp117
g7
VINTEGER
p118
sg9
Nsg10
Vpopularity
p119
sg12
Nsg13
VNULLABLE
p120
sbag1
(g2
g3
Ntp121
Rp122
(dp123
g7
VBOOLEAN
p124
sg9
Nsg10
Vexplicit
p125
sg12
Nsg13
VNULLABLE
p126
sbag1
(g2
g3
Ntp127
Rp128
(dp129
g7
VSTRING
p130
sg9
Nsg10
Vpreview_url
p131
sg12
Nsg13
VNULLABLE
p132
sbag1
(g2
g3
Ntp133
Rp134
(dp135
g7
VRECORD
p136
sg9
Nsg10
Valbum
p137
sg12
(lp138
g1
(g2
g3
Ntp139
Rp140
(dp141
g7
VSTRING
p142
sg9
Nsg10
Vavailable_markets
p143
sg12
Nsg13
VREPEATED
p144
sbag1
(g2
g3
Ntp145
Rp146
(dp147
g7
VSTRING
p148
sg9
Nsg10
Vid
p149
sg12
Nsg13
VNULLABLE
p150
sbag1
(g2
g3
Ntp151
Rp152
(dp153
g7
VSTRING
p154
sg9
Nsg10
Vtype
p155
sg12
Nsg13
VNULLABLE
p156
sbag1
(g2
g3
Ntp157
Rp158
(dp159
g7
VRECORD
p160
sg9
Nsg10
Vimages
p161
sg12
(lp162
g1
(g2
g3
Ntp163
Rp164
(dp165
g7
VINTEGER
p166
sg9
Nsg10
Vheight
p167
sg12
Nsg13
VNULLABLE
p168
sbag1
(g2
g3
Ntp169
Rp170
(dp171
g7
VINTEGER
p172
sg9
Nsg10
Vwidth
p173
sg12
Nsg13
VNULLABLE
p174
sbag1
(g2
g3
Ntp175
Rp176
(dp177
g7
VSTRING
p178
sg9
Nsg10
Vurl
p179
sg12
Nsg13
VNULLABLE
p180
sbasg13
VREPEATED
p181
sbag1
(g2
g3
Ntp182
Rp183
(dp184
g7
VSTRING
p185
sg9
Nsg10
Vhref
p186
sg12
Nsg13
VNULLABLE
p187
sbag1
(g2
g3
Ntp188
Rp189
(dp190
g7
VSTRING
p191
sg9
Nsg10
Vuri
p192
sg12
Nsg13
VNULLABLE
p193
sbag1
(g2
g3
Ntp194
Rp195
(dp196
g7
VRECORD
p197
sg9
Nsg10
Vexternal_urls
p198
sg12
(lp199
g1
(g2
g3
Ntp200
Rp201
(dp202
g7
VSTRING
p203
sg9
Nsg10
Vspotify
p204
sg12
Nsg13
VNULLABLE
p205
sbasg13
VNULLABLE
p206
sbag1
(g2
g3
Ntp207
Rp208
(dp209
g7
VSTRING
p210
sg9
Nsg10
Vname
p211
sg12
Nsg13
VNULLABLE
p212
sbag1
(g2
g3
Ntp213
Rp214
(dp215
g7
VRECORD
p216
sg9
Nsg10
Vartists
p217
sg12
(lp218
g1
(g2
g3
Ntp219
Rp220
(dp221
g7
VSTRING
p222
sg9
Nsg10
Vid
p223
sg12
Nsg13
VNULLABLE
p224
sbag1
(g2
g3
Ntp225
Rp226
(dp227
g7
VSTRING
p228
sg9
Nsg10
Vtype
p229
sg12
Nsg13
VNULLABLE
p230
sbag1
(g2
g3
Ntp231
Rp232
(dp233
g7
VSTRING
p234
sg9
Nsg10
Vhref
p235
sg12
Nsg13
VNULLABLE
p236
sbag1
(g2
g3
Ntp237
Rp238
(dp239
g7
VSTRING
p240
sg9
Nsg10
Vuri
p241
sg12
Nsg13
VNULLABLE
p242
sbag1
(g2
g3
Ntp243
Rp244
(dp245
g7
VRECORD
p246
sg9
Nsg10
Vexternal_urls
p247
sg12
(lp248
g1
(g2
g3
Ntp249
Rp250
(dp251
g7
VSTRING
p252
sg9
Nsg10
Vspotify
p253
sg12
Nsg13
VNULLABLE
p254
sbasg13
VNULLABLE
p255
sbag1
(g2
g3
Ntp256
Rp257
(dp258
g7
VSTRING
p259
sg9
Nsg10
Vname
p260
sg12
Nsg13
VNULLABLE
p261
sbasg13
VREPEATED
p262
sbag1
(g2
g3
Ntp263
Rp264
(dp265
g7
VSTRING
p266
sg9
Nsg10
Valbum_type
p267
sg12
Nsg13
VNULLABLE
p268
sbasg13
VNULLABLE
p269
sbag1
(g2
g3
Ntp270
Rp271
(dp272
g7
VINTEGER
p273
sg9
Nsg10
Vdisc_number
p274
sg12
Nsg13
VNULLABLE
p275
sbag1
(g2
g3
Ntp276
Rp277
(dp278
g7
VSTRING
p279
sg9
Nsg10
Vuri
p280
sg12
Nsg13
VNULLABLE
p281
sbag1
(g2
g3
Ntp282
Rp283
(dp284
g7
VSTRING
p285
sg9
Nsg10
Vhref
p286
sg12
Nsg13
VNULLABLE
p287
sbag1
(g2
g3
Ntp288
Rp289
(dp290
g7
VINTEGER
p291
sg9
Nsg10
Vtrack_number
p292
sg12
Nsg13
VNULLABLE
p293
sba.